(dp0
Vcity
p1
(dp2
Vname
p3
VOak Park
p4
sVcountry
p5
VUS
p6
sVcoord
p7
(dp8
Vlat
p9
F41.885029
sVlon
p10
F-87.7845
ssVsys
p11
(dp12
Vpopulation
p13
I0
ssVid
p14
I4904381
sVpopulation
p15
I0
ssVmessage
p16
F0.0055
sVlist
p17
(lp18
(dp19
Vclouds
p20
(dp21
Vall
p22
I48
ssVrain
p23
(dp24
V3h
p25
F2.19
ssVsys
p26
(dp27
Vpod
p28
Vn
p29
ssVdt_txt
p30
V2016-05-28 00:00:00
p31
sVweather
p32
(lp33
(dp34
Vmain
p35
VRain
p36
sVid
p37
I500
sVicon
p38
V10n
p39
sVdescription
p40
Vlight rain
p41
sasVdt
p42
I1464393600
sVmain
p43
(dp44
Vtemp_kf
p45
F-0.67
sVtemp
p46
F74.01
sVgrnd_level
p47
F1000.62
sVtemp_max
p48
F75.23
sVsea_level
p49
F1024.61
sVhumidity
p50
I83
sVpressure
p51
F1000.62
sVtemp_min
p52
F74.01
ssVwind
p53
(dp54
Vspeed
p55
F11.43
sVdeg
p56
F190.002
ssa(dp57
Vclouds
p58
(dp59
Vall
p60
I92
ssVrain
p61
(dp62
V3h
p63
F0.005
ssVsys
p64
(dp65
Vpod
p66
Vn
p67
ssVdt_txt
p68
V2016-05-28 03:00:00
p69
sVweather
p70
(lp71
(dp72
Vmain
p73
VRain
p74
sVid
p75
I500
sVicon
p76
V10n
p77
sVdescription
p78
Vlight rain
p79
sasVdt
p80
I1464404400
sVmain
p81
(dp82
Vtemp_kf
p83
F-0.64
sVtemp
p84
F72.03
sVgrnd_level
p85
F1000.71
sVtemp_max
p86
F73.18
sVsea_level
p87
F1024.73
sVhumidity
p88
I79
sVpressure
p89
F1000.71
sVtemp_min
p90
F72.03
ssVwind
p91
(dp92
Vspeed
p93
F10.96
sVdeg
p94
F168.003
ssa(dp95
Vclouds
p96
(dp97
Vall
p98
I76
ssVrain
p99
(dp100
sVsys
p101
(dp102
Vpod
p103
Vn
p104
ssVdt_txt
p105
V2016-05-28 06:00:00
p106
sVweather
p107
(lp108
(dp109
Vmain
p110
VClouds
p111
sVid
p112
I803
sVicon
p113
V04n
p114
sVdescription
p115
Vbroken clouds
p116
sasVdt
p117
I1464415200
sVmain
p118
(dp119
Vtemp_kf
p120
F-0.6
sVtemp
p121
F69.94
sVgrnd_level
p122
F1000.45
sVtemp_max
p123
F71.03
sVsea_level
p124
F1024.44
sVhumidity
p125
I74
sVpressure
p126
F1000.45
sVtemp_min
p127
F69.94
ssVwind
p128
(dp129
Vspeed
p130
F14.83
sVdeg
p131
F176.5
ssa(dp132
Vclouds
p133
(dp134
Vall
p135
I80
ssVrain
p136
(dp137
V3h
p138
F0.05
ssVsys
p139
(dp140
Vpod
p141
Vn
p142
ssVdt_txt
p143
V2016-05-28 09:00:00
p144
sVweather
p145
(lp146
(dp147
Vmain
p148
VRain
p149
sVid
p150
I500
sVicon
p151
V10n
p152
sVdescription
p153
Vlight rain
p154
sasVdt
p155
I1464426000
sVmain
p156
(dp157
Vtemp_kf
p158
F-0.57
sVtemp
p159
F68.7
sVgrnd_level
p160
F1000.64
sVtemp_max
p161
F69.72
sVsea_level
p162
F1024.55
sVhumidity
p163
I76
sVpressure
p164
F1000.64
sVtemp_min
p165
F68.7
ssVwind
p166
(dp167
Vspeed
p168
F16.02
sVdeg
p169
F192.501
ssa(dp170
Vclouds
p171
(dp172
Vall
p173
I12
ssVrain
p174
(dp175
V3h
p176
F0.08
ssVsys
p177
(dp178
Vpod
p179
Vd
p180
ssVdt_txt
p181
V2016-05-28 12:00:00
p182
sVweather
p183
(lp184
(dp185
Vmain
p186
VRain
p187
sVid
p188
I500
sVicon
p189
V10d
p190
sVdescription
p191
Vlight rain
p192
sasVdt
p193
I1464436800
sVmain
p194
(dp195
Vtemp_kf
p196
F-0.53
sVtemp
p197
F69.91
sVgrnd_level
p198
F1000.75
sVtemp_max
p199
F70.87
sVsea_level
p200
F1024.86
sVhumidity
p201
I77
sVpressure
p202
F1000.75
sVtemp_min
p203
F69.91
ssVwind
p204
(dp205
Vspeed
p206
F19.37
sVdeg
p207
I197
ssa(dp208
Vclouds
p209
(dp210
Vall
p211
I92
ssVrain
p212
(dp213
V3h
p214
F2.88
ssVsys
p215
(dp216
Vpod
p217
Vd
p218
ssVdt_txt
p219
V2016-05-28 15:00:00
p220
sVweather
p221
(lp222
(dp223
Vmain
p224
VRain
p225
sVid
p226
I500
sVicon
p227
V10d
p228
sVdescription
p229
Vlight rain
p230
sasVdt
p231
I1464447600
sVmain
p232
(dp233
Vtemp_kf
p234
F-0.49
sVtemp
p235
F67.68
sVgrnd_level
p236
F1002.23
sVtemp_max
p237
F68.57
sVsea_level
p238
F1026.26
sVhumidity
p239
I92
sVpressure
p240
F1002.23
sVtemp_min
p241
F67.68
ssVwind
p242
(dp243
Vspeed
p244
F16.91
sVdeg
p245
F191.505
ssa(dp246
Vclouds
p247
(dp248
Vall
p249
I88
ssVrain
p250
(dp251
V3h
p252
F0.5
ssVsys
p253
(dp254
Vpod
p255
Vd
p256
ssVdt_txt
p257
V2016-05-28 18:00:00
p258
sVweather
p259
(lp260
(dp261
Vmain
p262
VRain
p263
sVid
p264
I500
sVicon
p265
V10d
p266
sVdescription
p267
Vlight rain
p268
sasVdt
p269
I1464458400
sVmain
p270
(dp271
Vtemp_kf
p272
F-0.46
sVtemp
p273
F71.13
sVgrnd_level
p274
F1002.49
sVtemp_max
p275
F71.97
sVsea_level
p276
F1026.41
sVhumidity
p277
I90
sVpressure
p278
F1002.49
sVtemp_min
p279
F71.13
ssVwind
p280
(dp281
Vspeed
p282
F17.02
sVdeg
p283
F195.5
ssa(dp284
Vclouds
p285
(dp286
Vall
p287
I92
ssVrain
p288
(dp289
V3h
p290
F0.05
ssVsys
p291
(dp292
Vpod
p293
Vd
p294
ssVdt_txt
p295
V2016-05-28 21:00:00
p296
sVweather
p297
(lp298
(dp299
Vmain
p300
VRain
p301
sVid
p302
I500
sVicon
p303
V10d
p304
sVdescription
p305
Vlight rain
p306
sasVdt
p307
I1464469200
sVmain
p308
(dp309
Vtemp_kf
p310
F-0.42
sVtemp
p311
F71.92
sVgrnd_level
p312
F1002.03
sVtemp_max
p313
F72.69
sVsea_level
p314
F1025.89
sVhumidity
p315
I87
sVpressure
p316
F1002.03
sVtemp_min
p317
F71.92
ssVwind
p318
(dp319
Vspeed
p320
F16.58
sVdeg
p321
F194.008
ssa(dp322
Vclouds
p323
(dp324
Vall
p325
I68
ssVrain
p326
(dp327
V3h
p328
F0.03
ssVsys
p329
(dp330
Vpod
p331
Vn
p332
ssVdt_txt
p333
V2016-05-29 00:00:00
p334
sVweather
p335
(lp336
(dp337
Vmain
p338
VRain
p339
sVid
p340
I500
sVicon
p341
V10n
p342
sVdescription
p343
Vlight rain
p344
sasVdt
p345
I1464480000
sVmain
p346
(dp347
Vtemp_kf
p348
F-0.39
sVtemp
p349
F71.96
sVgrnd_level
p350
F1001.7
sVtemp_max
p351
F72.65
sVsea_level
p352
F1025.58
sVhumidity
p353
I84
sVpressure
p354
F1001.7
sVtemp_min
p355
F71.96
ssVwind
p356
(dp357
Vspeed
p358
F16.06
sVdeg
p359
F185.001
ssa(dp360
Vclouds
p361
(dp362
Vall
p363
I100
ssVrain
p364
(dp365
V3h
p366
F0.01
ssVsys
p367
(dp368
Vpod
p369
Vn
p370
ssVdt_txt
p371
V2016-05-29 03:00:00
p372
sVweather
p373
(lp374
(dp375
Vmain
p376
VRain
p377
sVid
p378
I500
sVicon
p379
V10n
p380
sVdescription
p381
Vlight rain
p382
sasVdt
p383
I1464490800
sVmain
p384
(dp385
Vtemp_kf
p386
F-0.35
sVtemp
p387
F70.93
sVgrnd_level
p388
F1002.64
sVtemp_max
p389
F71.58
sVsea_level
p390
F1026.7
sVhumidity
p391
I83
sVpressure
p392
F1002.64
sVtemp_min
p393
F70.93
ssVwind
p394
(dp395
Vspeed
p396
F16.8
sVdeg
p397
F196.5
ssa(dp398
Vclouds
p399
(dp400
Vall
p401
I24
ssVrain
p402
(dp403
V3h
p404
F0.09
ssVsys
p405
(dp406
Vpod
p407
Vn
p408
ssVdt_txt
p409
V2016-05-29 06:00:00
p410
sVweather
p411
(lp412
(dp413
Vmain
p414
VRain
p415
sVid
p416
I500
sVicon
p417
V10n
p418
sVdescription
p419
Vlight rain
p420
sasVdt
p421
I1464501600
sVmain
p422
(dp423
Vtemp_kf
p424
F-0.32
sVtemp
p425
F69.67
sVgrnd_level
p426
F1003.05
sVtemp_max
p427
F70.25
sVsea_level
p428
F1027.01
sVhumidity
p429
I85
sVpressure
p430
F1003.05
sVtemp_min
p431
F69.67
ssVwind
p432
(dp433
Vspeed
p434
F13.78
sVdeg
p435
F219.504
ssa(dp436
Vclouds
p437
(dp438
Vall
p439
I0
ssVrain
p440
(dp441
sVsys
p442
(dp443
Vpod
p444
Vn
p445
ssVdt_txt
p446
V2016-05-29 09:00:00
p447
sVweather
p448
(lp449
(dp450
Vmain
p451
VClear
p452
sVid
p453
I800
sVicon
p454
V01n
p455
sVdescription
p456
Vclear sky
p457
sasVdt
p458
I1464512400
sVmain
p459
(dp460
Vtemp_kf
p461
F-0.28
sVtemp
p462
F67.78
sVgrnd_level
p463
F1003.67
sVtemp_max
p464
F68.29
sVsea_level
p465
F1027.78
sVhumidity
p466
I85
sVpressure
p467
F1003.67
sVtemp_min
p468
F67.78
ssVwind
p469
(dp470
Vspeed
p471
F11.32
sVdeg
p472
F222.501
ssa(dp473
Vclouds
p474
(dp475
Vall
p476
I8
ssVrain
p477
(dp478
sVsys
p479
(dp480
Vpod
p481
Vd
p482
ssVdt_txt
p483
V2016-05-29 12:00:00
p484
sVweather
p485
(lp486
(dp487
Vmain
p488
VClear
p489
sVid
p490
I800
sVicon
p491
V02d
p492
sVdescription
p493
Vclear sky
p494
sasVdt
p495
I1464523200
sVmain
p496
(dp497
Vtemp_kf
p498
F-0.25
sVtemp
p499
F68.04
sVgrnd_level
p500
F1004.95
sVtemp_max
p501
F68.47
sVsea_level
p502
F1029.15
sVhumidity
p503
I85
sVpressure
p504
F1004.95
sVtemp_min
p505
F68.04
ssVwind
p506
(dp507
Vspeed
p508
F10.58
sVdeg
p509
F230.501
ssa(dp510
Vclouds
p511
(dp512
Vall
p513
I0
ssVrain
p514
(dp515
sVsys
p516
(dp517
Vpod
p518
Vd
p519
ssVdt_txt
p520
V2016-05-29 15:00:00
p521
sVweather
p522
(lp523
(dp524
Vmain
p525
VClear
p526
sVid
p527
I800
sVicon
p528
V01d
p529
sVdescription
p530
Vclear sky
p531
sasVdt
p532
I1464534000
sVmain
p533
(dp534
Vtemp_kf
p535
F-0.21
sVtemp
p536
F74.16
sVgrnd_level
p537
F1005.64
sVtemp_max
p538
F74.54
sVsea_level
p539
F1029.67
sVhumidity
p540
I78
sVpressure
p541
F1005.64
sVtemp_min
p542
F74.16
ssVwind
p543
(dp544
Vspeed
p545
F12.88
sVdeg
p546
F248.004
ssa(dp547
Vclouds
p548
(dp549
Vall
p550
I0
ssVrain
p551
(dp552
sVsys
p553
(dp554
Vpod
p555
Vd
p556
ssVdt_txt
p557
V2016-05-29 18:00:00
p558
sVweather
p559
(lp560
(dp561
Vmain
p562
VClear
p563
sVid
p564
I800
sVicon
p565
V01d
p566
sVdescription
p567
Vclear sky
p568
sasVdt
p569
I1464544800
sVmain
p570
(dp571
Vtemp_kf
p572
F-0.18
sVtemp
p573
F78.24
sVgrnd_level
p574
F1005.88
sVtemp_max
p575
F78.55
sVsea_level
p576
F1029.81
sVhumidity
p577
I68
sVpressure
p578
F1005.88
sVtemp_min
p579
F78.24
ssVwind
p580
(dp581
Vspeed
p582
F15.48
sVdeg
p583
F262.001
ssa(dp584
Vclouds
p585
(dp586
Vall
p587
I0
ssVrain
p588
(dp589
sVsys
p590
(dp591
Vpod
p592
Vd
p593
ssVdt_txt
p594
V2016-05-29 21:00:00
p595
sVweather
p596
(lp597
(dp598
Vmain
p599
VClear
p600
sVid
p601
I800
sVicon
p602
V01d
p603
sVdescription
p604
Vclear sky
p605
sasVdt
p606
I1464555600
sVmain
p607
(dp608
Vtemp_kf
p609
F-0.14
sVtemp
p610
F80.49
sVgrnd_level
p611
F1005.25
sVtemp_max
p612
F80.74
sVsea_level
p613
F1029.14
sVhumidity
p614
I56
sVpressure
p615
F1005.25
sVtemp_min
p616
F80.49
ssVwind
p617
(dp618
Vspeed
p619
F16.69
sVdeg
p620
F273.512
ssa(dp621
Vclouds
p622
(dp623
Vall
p624
I0
ssVrain
p625
(dp626
sVsys
p627
(dp628
Vpod
p629
Vn
p630
ssVdt_txt
p631
V2016-05-30 00:00:00
p632
sVweather
p633
(lp634
(dp635
Vmain
p636
VClear
p637
sVid
p638
I800
sVicon
p639
V01n
p640
sVdescription
p641
Vclear sky
p642
sasVdt
p643
I1464566400
sVmain
p644
(dp645
Vtemp_kf
p646
F-0.11
sVtemp
p647
F79.75
sVgrnd_level
p648
F1004.61
sVtemp_max
p649
F79.94
sVsea_level
p650
F1028.57
sVhumidity
p651
I50
sVpressure
p652
F1004.61
sVtemp_min
p653
F79.75
ssVwind
p654
(dp655
Vspeed
p656
F14.58
sVdeg
p657
F280.002
ssa(dp658
Vclouds
p659
(dp660
Vall
p661
I8
ssVrain
p662
(dp663
sVsys
p664
(dp665
Vpod
p666
Vn
p667
ssVdt_txt
p668
V2016-05-30 03:00:00
p669
sVweather
p670
(lp671
(dp672
Vmain
p673
VClear
p674
sVid
p675
I800
sVicon
p676
V02n
p677
sVdescription
p678
Vclear sky
p679
sasVdt
p680
I1464577200
sVmain
p681
(dp682
Vtemp_kf
p683
F-0.07
sVtemp
p684
F73.9
sVgrnd_level
p685
F1006.01
sVtemp_max
p686
F74.02
sVsea_level
p687
F1029.99
sVhumidity
p688
I58
sVpressure
p689
F1006.01
sVtemp_min
p690
F73.9
ssVwind
p691
(dp692
Vspeed
p693
F7.74
sVdeg
p694
F270.507
ssa(dp695
Vclouds
p696
(dp697
Vall
p698
I0
ssVrain
p699
(dp700
sVsys
p701
(dp702
Vpod
p703
Vn
p704
ssVdt_txt
p705
V2016-05-30 06:00:00
p706
sVweather
p707
(lp708
(dp709
Vmain
p710
VClear
p711
sVid
p712
I800
sVicon
p713
V01n
p714
sVdescription
p715
Vclear sky
p716
sasVdt
p717
I1464588000
sVmain
p718
(dp719
Vtemp_kf
p720
F-0.04
sVtemp
p721
F67.08
sVgrnd_level
p722
F1006.1
sVtemp_max
p723
F67.15
sVsea_level
p724
F1030.27
sVhumidity
p725
I75
sVpressure
p726
F1006.1
sVtemp_min
p727
F67.08
ssVwind
p728
(dp729
Vspeed
p730
F4.05
sVdeg
p731
I253
ssa(dp732
Vclouds
p733
(dp734
Vall
p735
I0
ssVrain
p736
(dp737
sVsys
p738
(dp739
Vpod
p740
Vn
p741
ssVdt_txt
p742
V2016-05-30 09:00:00
p743
sVweather
p744
(lp745
(dp746
Vmain
p747
VClear
p748
sVid
p749
I800
sVicon
p750
V01n
p751
sVdescription
p752
Vclear sky
p753
sasVdt
p754
I1464598800
sVmain
p755
(dp756
Vtemp_kf
p757
I0
sVtemp
p758
F63.24
sVgrnd_level
p759
F1005.76
sVtemp_max
p760
F63.24
sVsea_level
p761
F1030.03
sVhumidity
p762
I87
sVpressure
p763
F1005.76
sVtemp_min
p764
F63.24
ssVwind
p765
(dp766
Vspeed
p767
F2.84
sVdeg
p768
F255.502
ssa(dp769
Vclouds
p770
(dp771
Vall
p772
I0
ssVrain
p773
(dp774
sVsys
p775
(dp776
Vpod
p777
Vd
p778
ssVdt_txt
p779
V2016-05-30 12:00:00
p780
sVweather
p781
(lp782
(dp783
Vmain
p784
VClear
p785
sVid
p786
I800
sVicon
p787
V01d
p788
sVdescription
p789
Vclear sky
p790
sasVdt
p791
I1464609600
sVmain
p792
(dp793
Vtemp_kf
p794
I0
sVtemp
p795
F68.73
sVgrnd_level
p796
F1006.58
sVtemp_max
p797
F68.73
sVsea_level
p798
F1030.75
sVhumidity
p799
I76
sVpressure
p800
F1006.58
sVtemp_min
p801
F68.73
ssVwind
p802
(dp803
Vspeed
p804
F2.84
sVdeg
p805
F245.501
ssa(dp806
Vclouds
p807
(dp808
Vall
p809
I0
ssVrain
p810
(dp811
sVsys
p812
(dp813
Vpod
p814
Vd
p815
ssVdt_txt
p816
V2016-05-30 15:00:00
p817
sVweather
p818
(lp819
(dp820
Vmain
p821
VClear
p822
sVid
p823
I800
sVicon
p824
V01d
p825
sVdescription
p826
Vclear sky
p827
sasVdt
p828
I1464620400
sVmain
p829
(dp830
Vtemp_kf
p831
I0
sVtemp
p832
F79.7
sVgrnd_level
p833
F1006.62
sVtemp_max
p834
F79.7
sVsea_level
p835
F1030.7
sVhumidity
p836
I65
sVpressure
p837
F1006.62
sVtemp_min
p838
F79.7
ssVwind
p839
(dp840
Vspeed
p841
F4.27
sVdeg
p842
F221.502
ssa(dp843
Vclouds
p844
(dp845
Vall
p846
I20
ssVrain
p847
(dp848
sVsys
p849
(dp850
Vpod
p851
Vd
p852
ssVdt_txt
p853
V2016-05-30 18:00:00
p854
sVweather
p855
(lp856
(dp857
Vmain
p858
VClouds
p859
sVid
p860
I801
sVicon
p861
V02d
p862
sVdescription
p863
Vfew clouds
p864
sasVdt
p865
I1464631200
sVmain
p866
(dp867
Vtemp_kf
p868
I0
sVtemp
p869
F84.24
sVgrnd_level
p870
F1004.82
sVtemp_max
p871
F84.24
sVsea_level
p872
F1028.72
sVhumidity
p873
I57
sVpressure
p874
F1004.82
sVtemp_min
p875
F84.24
ssVwind
p876
(dp877
Vspeed
p878
F7.99
sVdeg
p879
F227.501
ssa(dp880
Vclouds
p881
(dp882
Vall
p883
I8
ssVrain
p884
(dp885
V3h
p886
F5.08
ssVsys
p887
(dp888
Vpod
p889
Vd
p890
ssVdt_txt
p891
V2016-05-30 21:00:00
p892
sVweather
p893
(lp894
(dp895
Vmain
p896
VRain
p897
sVid
p898
I501
sVicon
p899
V10d
p900
sVdescription
p901
Vmoderate rain
p902
sasVdt
p903
I1464642000
sVmain
p904
(dp905
Vtemp_kf
p906
I0
sVtemp
p907
F80.09
sVgrnd_level
p908
F1003.31
sVtemp_max
p909
F80.09
sVsea_level
p910
F1027.17
sVhumidity
p911
I75
sVpressure
p912
F1003.31
sVtemp_min
p913
F80.09
ssVwind
p914
(dp915
Vspeed
p916
F7.43
sVdeg
p917
F257.501
ssa(dp918
Vclouds
p919
(dp920
Vall
p921
I48
ssVrain
p922
(dp923
V3h
p924
F0.24
ssVsys
p925
(dp926
Vpod
p927
Vn
p928
ssVdt_txt
p929
V2016-05-31 00:00:00
p930
sVweather
p931
(lp932
(dp933
Vmain
p934
VRain
p935
sVid
p936
I500
sVicon
p937
V10n
p938
sVdescription
p939
Vlight rain
p940
sasVdt
p941
I1464652800
sVmain
p942
(dp943
Vtemp_kf
p944
I0
sVtemp
p945
F80.79
sVgrnd_level
p946
F1002.1
sVtemp_max
p947
F80.79
sVsea_level
p948
F1026.07
sVhumidity
p949
I63
sVpressure
p950
F1002.1
sVtemp_min
p951
F80.79
ssVwind
p952
(dp953
Vspeed
p954
F7.29
sVdeg
p955
I224
ssa(dp956
Vclouds
p957
(dp958
Vall
p959
I44
ssVrain
p960
(dp961
V3h
p962
F0.95
ssVsys
p963
(dp964
Vpod
p965
Vn
p966
ssVdt_txt
p967
V2016-05-31 03:00:00
p968
sVweather
p969
(lp970
(dp971
Vmain
p972
VRain
p973
sVid
p974
I500
sVicon
p975
V10n
p976
sVdescription
p977
Vlight rain
p978
sasVdt
p979
I1464663600
sVmain
p980
(dp981
Vtemp_kf
p982
I0
sVtemp
p983
F69.73
sVgrnd_level
p984
F1002.89
sVtemp_max
p985
F69.73
sVsea_level
p986
F1026.92
sVhumidity
p987
I73
sVpressure
p988
F1002.89
sVtemp_min
p989
F69.73
ssVwind
p990
(dp991
Vspeed
p992
F10.2
sVdeg
p993
I221
ssa(dp994
Vclouds
p995
(dp996
Vall
p997
I12
ssVrain
p998
(dp999
sVsys
p1000
(dp1001
Vpod
p1002
Vn
p1003
ssVdt_txt
p1004
V2016-05-31 06:00:00
p1005
sVweather
p1006
(lp1007
(dp1008
Vmain
p1009
VClouds
p1010
sVid
p1011
I801
sVicon
p1012
V02n
p1013
sVdescription
p1014
Vfew clouds
p1015
sasVdt
p1016
I1464674400
sVmain
p1017
(dp1018
Vtemp_kf
p1019
I0
sVtemp
p1020
F68.64
sVgrnd_level
p1021
F1002.28
sVtemp_max
p1022
F68.64
sVsea_level
p1023
F1026.48
sVhumidity
p1024
I75
sVpressure
p1025
F1002.28
sVtemp_min
p1026
F68.64
ssVwind
p1027
(dp1028
Vspeed
p1029
F8.86
sVdeg
p1030
F224.501
ssa(dp1031
Vclouds
p1032
(dp1033
Vall
p1034
I0
ssVrain
p1035
(dp1036
sVsys
p1037
(dp1038
Vpod
p1039
Vn
p1040
ssVdt_txt
p1041
V2016-05-31 09:00:00
p1042
sVweather
p1043
(lp1044
(dp1045
Vmain
p1046
VClear
p1047
sVid
p1048
I800
sVicon
p1049
V01n
p1050
sVdescription
p1051
Vclear sky
p1052
sasVdt
p1053
I1464685200
sVmain
p1054
(dp1055
Vtemp_kf
p1056
I0
sVtemp
p1057
F66.41
sVgrnd_level
p1058
F1002.83
sVtemp_max
p1059
F66.41
sVsea_level
p1060
F1027.05
sVhumidity
p1061
I82
sVpressure
p1062
F1002.83
sVtemp_min
p1063
F66.41
ssVwind
p1064
(dp1065
Vspeed
p1066
F5.53
sVdeg
p1067
F291.004
ssa(dp1068
Vclouds
p1069
(dp1070
Vall
p1071
I0
ssVrain
p1072
(dp1073
sVsys
p1074
(dp1075
Vpod
p1076
Vd
p1077
ssVdt_txt
p1078
V2016-05-31 12:00:00
p1079
sVweather
p1080
(lp1081
(dp1082
Vmain
p1083
VClear
p1084
sVid
p1085
I800
sVicon
p1086
V01d
p1087
sVdescription
p1088
Vclear sky
p1089
sasVdt
p1090
I1464696000
sVmain
p1091
(dp1092
Vtemp_kf
p1093
I0
sVtemp
p1094
F67.23
sVgrnd_level
p1095
F1003.8
sVtemp_max
p1096
F67.23
sVsea_level
p1097
F1027.96
sVhumidity
p1098
I83
sVpressure
p1099
F1003.8
sVtemp_min
p1100
F67.23
ssVwind
p1101
(dp1102
Vspeed
p1103
F4.54
sVdeg
p1104
F14.0018
ssa(dp1105
Vclouds
p1106
(dp1107
Vall
p1108
I0
ssVrain
p1109
(dp1110
sVsys
p1111
(dp1112
Vpod
p1113
Vd
p1114
ssVdt_txt
p1115
V2016-05-31 15:00:00
p1116
sVweather
p1117
(lp1118
(dp1119
Vmain
p1120
VClear
p1121
sVid
p1122
I800
sVicon
p1123
V01d
p1124
sVdescription
p1125
Vclear sky
p1126
sasVdt
p1127
I1464706800
sVmain
p1128
(dp1129
Vtemp_kf
p1130
I0
sVtemp
p1131
F73.62
sVgrnd_level
p1132
F1004.36
sVtemp_max
p1133
F73.62
sVsea_level
p1134
F1028.26
sVhumidity
p1135
I77
sVpressure
p1136
F1004.36
sVtemp_min
p1137
F73.62
ssVwind
p1138
(dp1139
Vspeed
p1140
F8.52
sVdeg
p1141
F50.0031
ssa(dp1142
Vclouds
p1143
(dp1144
Vall
p1145
I0
ssVrain
p1146
(dp1147
sVsys
p1148
(dp1149
Vpod
p1150
Vd
p1151
ssVdt_txt
p1152
V2016-05-31 18:00:00
p1153
sVweather
p1154
(lp1155
(dp1156
Vmain
p1157
VClear
p1158
sVid
p1159
I800
sVicon
p1160
V01d
p1161
sVdescription
p1162
Vclear sky
p1163
sasVdt
p1164
I1464717600
sVmain
p1165
(dp1166
Vtemp_kf
p1167
I0
sVtemp
p1168
F78.63
sVgrnd_level
p1169
F1003.97
sVtemp_max
p1170
F78.63
sVsea_level
p1171
F1027.87
sVhumidity
p1172
I68
sVpressure
p1173
F1003.97
sVtemp_min
p1174
F78.63
ssVwind
p1175
(dp1176
Vspeed
p1177
F8.05
sVdeg
p1178
F61.5017
ssa(dp1179
Vclouds
p1180
(dp1181
Vall
p1182
I12
ssVrain
p1183
(dp1184
sVsys
p1185
(dp1186
Vpod
p1187
Vd
p1188
ssVdt_txt
p1189
V2016-05-31 21:00:00
p1190
sVweather
p1191
(lp1192
(dp1193
Vmain
p1194
VClouds
p1195
sVid
p1196
I801
sVicon
p1197
V02d
p1198
sVdescription
p1199
Vfew clouds
p1200
sasVdt
p1201
I1464728400
sVmain
p1202
(dp1203
Vtemp_kf
p1204
I0
sVtemp
p1205
F81.3
sVgrnd_level
p1206
F1002.51
sVtemp_max
p1207
F81.3
sVsea_level
p1208
F1026.35
sVhumidity
p1209
I57
sVpressure
p1210
F1002.51
sVtemp_min
p1211
F81.3
ssVwind
p1212
(dp1213
Vspeed
p1214
F7.81
sVdeg
p1215
F51.5001
ssa(dp1216
Vclouds
p1217
(dp1218
Vall
p1219
I44
ssVrain
p1220
(dp1221
V3h
p1222
F0.23
ssVsys
p1223
(dp1224
Vpod
p1225
Vn
p1226
ssVdt_txt
p1227
V2016-06-01 00:00:00
p1228
sVweather
p1229
(lp1230
(dp1231
Vmain
p1232
VRain
p1233
sVid
p1234
I500
sVicon
p1235
V10n
p1236
sVdescription
p1237
Vlight rain
p1238
sasVdt
p1239
I1464739200
sVmain
p1240
(dp1241
Vtemp_kf
p1242
I0
sVtemp
p1243
F75.94
sVgrnd_level
p1244
F1002.46
sVtemp_max
p1245
F75.94
sVsea_level
p1246
F1026.36
sVhumidity
p1247
I54
sVpressure
p1248
F1002.46
sVtemp_min
p1249
F75.94
ssVwind
p1250
(dp1251
Vspeed
p1252
F10.07
sVdeg
p1253
F46.5001
ssa(dp1254
Vclouds
p1255
(dp1256
Vall
p1257
I12
ssVrain
p1258
(dp1259
sVsys
p1260
(dp1261
Vpod
p1262
Vn
p1263
ssVdt_txt
p1264
V2016-06-01 03:00:00
p1265
sVweather
p1266
(lp1267
(dp1268
Vmain
p1269
VClouds
p1270
sVid
p1271
I801
sVicon
p1272
V02n
p1273
sVdescription
p1274
Vfew clouds
p1275
sasVdt
p1276
I1464750000
sVmain
p1277
(dp1278
Vtemp_kf
p1279
I0
sVtemp
p1280
F67.02
sVgrnd_level
p1281
F1003.24
sVtemp_max
p1282
F67.02
sVsea_level
p1283
F1027.19
sVhumidity
p1284
I63
sVpressure
p1285
F1003.24
sVtemp_min
p1286
F67.02
ssVwind
p1287
(dp1288
Vspeed
p1289
F10.42
sVdeg
p1290
F43.0013
ssa(dp1291
Vclouds
p1292
(dp1293
Vall
p1294
I36
ssVrain
p1295
(dp1296
sVsys
p1297
(dp1298
Vpod
p1299
Vn
p1300
ssVdt_txt
p1301
V2016-06-01 06:00:00
p1302
sVweather
p1303
(lp1304
(dp1305
Vmain
p1306
VClouds
p1307
sVid
p1308
I802
sVicon
p1309
V03n
p1310
sVdescription
p1311
Vscattered clouds
p1312
sasVdt
p1313
I1464760800
sVmain
p1314
(dp1315
Vtemp_kf
p1316
I0
sVtemp
p1317
F63.49
sVgrnd_level
p1318
F1002.81
sVtemp_max
p1319
F63.49
sVsea_level
p1320
F1027.01
sVhumidity
p1321
I68
sVpressure
p1322
F1002.81
sVtemp_min
p1323
F63.49
ssVwind
p1324
(dp1325
Vspeed
p1326
F6.91
sVdeg
p1327
F54.5007
ssa(dp1328
Vclouds
p1329
(dp1330
Vall
p1331
I64
ssVrain
p1332
(dp1333
sVsys
p1334
(dp1335
Vpod
p1336
Vn
p1337
ssVdt_txt
p1338
V2016-06-01 09:00:00
p1339
sVweather
p1340
(lp1341
(dp1342
Vmain
p1343
VClouds
p1344
sVid
p1345
I803
sVicon
p1346
V04n
p1347
sVdescription
p1348
Vbroken clouds
p1349
sasVdt
p1350
I1464771600
sVmain
p1351
(dp1352
Vtemp_kf
p1353
I0
sVtemp
p1354
F63.66
sVgrnd_level
p1355
F1002.28
sVtemp_max
p1356
F63.66
sVsea_level
p1357
F1026.37
sVhumidity
p1358
I66
sVpressure
p1359
F1002.28
sVtemp_min
p1360
F63.66
ssVwind
p1361
(dp1362
Vspeed
p1363
F6.26
sVdeg
p1364
F54.0017
ssa(dp1365
Vclouds
p1366
(dp1367
Vall
p1368
I12
ssVrain
p1369
(dp1370
sVsys
p1371
(dp1372
Vpod
p1373
Vd
p1374
ssVdt_txt
p1375
V2016-06-01 12:00:00
p1376
sVweather
p1377
(lp1378
(dp1379
Vmain
p1380
VClouds
p1381
sVid
p1382
I801
sVicon
p1383
V02d
p1384
sVdescription
p1385
Vfew clouds
p1386
sasVdt
p1387
I1464782400
sVmain
p1388
(dp1389
Vtemp_kf
p1390
I0
sVtemp
p1391
F68.43
sVgrnd_level
p1392
F1002.87
sVtemp_max
p1393
F68.43
sVsea_level
p1394
F1027.02
sVhumidity
p1395
I58
sVpressure
p1396
F1002.87
sVtemp_min
p1397
F68.43
ssVwind
p1398
(dp1399
Vspeed
p1400
F4.94
sVdeg
p1401
F63.5012
ssa(dp1402
Vclouds
p1403
(dp1404
Vall
p1405
I24
ssVrain
p1406
(dp1407
sVsys
p1408
(dp1409
Vpod
p1410
Vd
p1411
ssVdt_txt
p1412
V2016-06-01 15:00:00
p1413
sVweather
p1414
(lp1415
(dp1416
Vmain
p1417
VClouds
p1418
sVid
p1419
I801
sVicon
p1420
V02d
p1421
sVdescription
p1422
Vfew clouds
p1423
sasVdt
p1424
I1464793200
sVmain
p1425
(dp1426
Vtemp_kf
p1427
I0
sVtemp
p1428
F80.64
sVgrnd_level
p1429
F1002.6
sVtemp_max
p1430
F80.64
sVsea_level
p1431
F1026.7
sVhumidity
p1432
I60
sVpressure
p1433
F1002.6
sVtemp_min
p1434
F80.64
ssVwind
p1435
(dp1436
Vspeed
p1437
F9.51
sVdeg
p1438
F149.001
ssa(dp1439
Vclouds
p1440
(dp1441
Vall
p1442
I8
ssVrain
p1443
(dp1444
V3h
p1445
F0.2
ssVsys
p1446
(dp1447
Vpod
p1448
Vd
p1449
ssVdt_txt
p1450
V2016-06-01 18:00:00
p1451
sVweather
p1452
(lp1453
(dp1454
Vmain
p1455
VRain
p1456
sVid
p1457
I500
sVicon
p1458
V10d
p1459
sVdescription
p1460
Vlight rain
p1461
sasVdt
p1462
I1464804000
sVmain
p1463
(dp1464
Vtemp_kf
p1465
I0
sVtemp
p1466
F83.34
sVgrnd_level
p1467
F1002.28
sVtemp_max
p1468
F83.34
sVsea_level
p1469
F1026.2
sVhumidity
p1470
I58
sVpressure
p1471
F1002.28
sVtemp_min
p1472
F83.34
ssVwind
p1473
(dp1474
Vspeed
p1475
F9.66
sVdeg
p1476
F154.504
ssa(dp1477
Vclouds
p1478
(dp1479
Vall
p1480
I24
ssVrain
p1481
(dp1482
V3h
p1483
F1.74
ssVsys
p1484
(dp1485
Vpod
p1486
Vd
p1487
ssVdt_txt
p1488
V2016-06-01 21:00:00
p1489
sVweather
p1490
(lp1491
(dp1492
Vmain
p1493
VRain
p1494
sVid
p1495
I500
sVicon
p1496
V10d
p1497
sVdescription
p1498
Vlight rain
p1499
sasVdt
p1500
I1464814800
sVmain
p1501
(dp1502
Vtemp_kf
p1503
I0
sVtemp
p1504
F81.39
sVgrnd_level
p1505
F1000.69
sVtemp_max
p1506
F81.39
sVsea_level
p1507
F1024.52
sVhumidity
p1508
I69
sVpressure
p1509
F1000.69
sVtemp_min
p1510
F81.39
ssVwind
p1511
(dp1512
Vspeed
p1513
F11.1
sVdeg
p1514
F157.016
ssasVcod
p1515
V200
p1516
sVcnt
p1517
I40
s.