(dp0
Vcity
p1
(dp2
Vname
p3
VOak Park
p4
sVcountry
p5
VUS
p6
sVcoord
p7
(dp8
Vlat
p9
F41.885029
sVlon
p10
F-87.7845
ssVsys
p11
(dp12
Vpopulation
p13
I0
ssVid
p14
I4904381
sVpopulation
p15
I0
ssVmessage
p16
F0.0055
sVlist
p17
(lp18
(dp19
Vclouds
p20
(dp21
Vall
p22
I64
ssVsys
p23
(dp24
Vpod
p25
Vd
p26
ssVdt_txt
p27
V2016-06-06 12:00:00
p28
sVweather
p29
(lp30
(dp31
Vmain
p32
VClouds
p33
sVid
p34
I803
sVicon
p35
V04d
p36
sVdescription
p37
Vbroken clouds
p38
sasVdt
p39
I1465214400
sVmain
p40
(dp41
Vtemp_kf
p42
F-7.83
sVtemp
p43
F55.89
sVgrnd_level
p44
F995.12
sVtemp_max
p45
F69.97
sVsea_level
p46
F1019.07
sVhumidity
p47
I55
sVpressure
p48
F995.12
sVtemp_min
p49
F55.89
ssVwind
p50
(dp51
Vspeed
p52
F3.98
sVdeg
p53
F280.503
ssa(dp54
Vclouds
p55
(dp56
Vall
p57
I0
ssVsys
p58
(dp59
Vpod
p60
Vd
p61
ssVdt_txt
p62
V2016-06-06 15:00:00
p63
sVweather
p64
(lp65
(dp66
Vmain
p67
VClear
p68
sVid
p69
I800
sVicon
p70
V01d
p71
sVdescription
p72
Vclear sky
p73
sasVdt
p74
I1465225200
sVmain
p75
(dp76
Vtemp_kf
p77
F-7.42
sVtemp
p78
F66.76
sVgrnd_level
p79
F995.01
sVtemp_max
p80
F80.1
sVsea_level
p81
F1018.65
sVhumidity
p82
I50
sVpressure
p83
F995.01
sVtemp_min
p84
F66.76
ssVwind
p85
(dp86
Vspeed
p87
F5.17
sVdeg
p88
F258.503
ssa(dp89
Vclouds
p90
(dp91
Vall
p92
I0
ssVsys
p93
(dp94
Vpod
p95
Vd
p96
ssVdt_txt
p97
V2016-06-06 18:00:00
p98
sVweather
p99
(lp100
(dp101
Vmain
p102
VClear
p103
sVid
p104
I800
sVicon
p105
V01d
p106
sVdescription
p107
Vclear sky
p108
sasVdt
p109
I1465236000
sVmain
p110
(dp111
Vtemp_kf
p112
I-7
sVtemp
p113
F70.61
sVgrnd_level
p114
F993.94
sVtemp_max
p115
F83.22
sVsea_level
p116
F1017.56
sVhumidity
p117
I37
sVpressure
p118
F993.94
sVtemp_min
p119
F70.61
ssVwind
p120
(dp121
Vspeed
p122
F18.39
sVdeg
p123
F286.001
ssa(dp124
Vclouds
p125
(dp126
Vall
p127
I0
ssVsys
p128
(dp129
Vpod
p130
Vd
p131
ssVdt_txt
p132
V2016-06-06 21:00:00
p133
sVweather
p134
(lp135
(dp136
Vmain
p137
VClear
p138
sVid
p139
I800
sVicon
p140
V01d
p141
sVdescription
p142
Vclear sky
p143
sasVdt
p144
I1465246800
sVmain
p145
(dp146
Vtemp_kf
p147
F-6.59
sVtemp
p148
F70.63
sVgrnd_level
p149
F993.21
sVtemp_max
p150
F82.49
sVsea_level
p151
F1016.88
sVhumidity
p152
I33
sVpressure
p153
F993.21
sVtemp_min
p154
F70.63
ssVwind
p155
(dp156
Vspeed
p157
F18.7
sVdeg
p158
F290.5
ssa(dp159
Vclouds
p160
(dp161
Vall
p162
I0
ssVsys
p163
(dp164
Vpod
p165
Vn
p166
ssVdt_txt
p167
V2016-06-07 00:00:00
p168
sVweather
p169
(lp170
(dp171
Vmain
p172
VClear
p173
sVid
p174
I800
sVicon
p175
V01n
p176
sVdescription
p177
Vclear sky
p178
sasVdt
p179
I1465257600
sVmain
p180
(dp181
Vtemp_kf
p182
F-6.18
sVtemp
p183
F67.75
sVgrnd_level
p184
F993.24
sVtemp_max
p185
F78.88
sVsea_level
p186
F1016.88
sVhumidity
p187
I30
sVpressure
p188
F993.24
sVtemp_min
p189
F67.75
ssVwind
p190
(dp191
Vspeed
p192
F16.93
sVdeg
p193
F291.502
ssa(dp194
Vclouds
p195
(dp196
Vall
p197
I20
ssVsys
p198
(dp199
Vpod
p200
Vn
p201
ssVdt_txt
p202
V2016-06-07 03:00:00
p203
sVweather
p204
(lp205
(dp206
Vmain
p207
VClouds
p208
sVid
p209
I801
sVicon
p210
V02n
p211
sVdescription
p212
Vfew clouds
p213
sasVdt
p214
I1465268400
sVmain
p215
(dp216
Vtemp_kf
p217
F-5.77
sVtemp
p218
F61.75
sVgrnd_level
p219
F994.92
sVtemp_max
p220
F72.14
sVsea_level
p221
F1018.9
sVhumidity
p222
I36
sVpressure
p223
F994.92
sVtemp_min
p224
F61.75
ssVwind
p225
(dp226
Vspeed
p227
F13.24
sVdeg
p228
F308.009
ssa(dp229
Vclouds
p230
(dp231
Vall
p232
I0
ssVsys
p233
(dp234
Vpod
p235
Vn
p236
ssVdt_txt
p237
V2016-06-07 06:00:00
p238
sVweather
p239
(lp240
(dp241
Vmain
p242
VClear
p243
sVid
p244
I800
sVicon
p245
V01n
p246
sVdescription
p247
Vclear sky
p248
sasVdt
p249
I1465279200
sVmain
p250
(dp251
Vtemp_kf
p252
F-5.36
sVtemp
p253
F57.47
sVgrnd_level
p254
F996.13
sVtemp_max
p255
F67.1
sVsea_level
p256
F1020.21
sVhumidity
p257
I49
sVpressure
p258
F996.13
sVtemp_min
p259
F57.47
ssVwind
p260
(dp261
Vspeed
p262
F11.32
sVdeg
p263
F327.507
ssa(dp264
Vclouds
p265
(dp266
Vall
p267
I0
ssVsys
p268
(dp269
Vpod
p270
Vn
p271
ssVdt_txt
p272
V2016-06-07 09:00:00
p273
sVweather
p274
(lp275
(dp276
Vmain
p277
VClear
p278
sVid
p279
I800
sVicon
p280
V01n
p281
sVdescription
p282
Vclear sky
p283
sasVdt
p284
I1465290000
sVmain
p285
(dp286
Vtemp_kf
p287
F-4.94
sVtemp
p288
F52.41
sVgrnd_level
p289
F996.9
sVtemp_max
p290
F61.3
sVsea_level
p291
F1021.08
sVhumidity
p292
I66
sVpressure
p293
F996.9
sVtemp_min
p294
F52.41
ssVwind
p295
(dp296
Vspeed
p297
F7.74
sVdeg
p298
F331.506
ssa(dp299
Vclouds
p300
(dp301
Vall
p302
I0
ssVsys
p303
(dp304
Vpod
p305
Vd
p306
ssVdt_txt
p307
V2016-06-07 12:00:00
p308
sVweather
p309
(lp310
(dp311
Vmain
p312
VClear
p313
sVid
p314
I800
sVicon
p315
V01d
p316
sVdescription
p317
Vclear sky
p318
sasVdt
p319
I1465300800
sVmain
p320
(dp321
Vtemp_kf
p322
F-4.53
sVtemp
p323
F53.01
sVgrnd_level
p324
F998.5
sVtemp_max
p325
F61.17
sVsea_level
p326
F1022.72
sVhumidity
p327
I68
sVpressure
p328
F998.5
sVtemp_min
p329
F53.01
ssVwind
p330
(dp331
Vspeed
p332
F8.41
sVdeg
p333
F355.001
ssa(dp334
Vclouds
p335
(dp336
Vall
p337
I64
ssVrain
p338
(dp339
V3h
p340
F0.08
ssVsys
p341
(dp342
Vpod
p343
Vd
p344
ssVdt_txt
p345
V2016-06-07 15:00:00
p346
sVweather
p347
(lp348
(dp349
Vmain
p350
VRain
p351
sVid
p352
I500
sVicon
p353
V10d
p354
sVdescription
p355
Vlight rain
p356
sasVdt
p357
I1465311600
sVmain
p358
(dp359
Vtemp_kf
p360
F-4.12
sVtemp
p361
F55.04
sVgrnd_level
p362
F1000.22
sVtemp_max
p363
F62.45
sVsea_level
p364
F1024.25
sVhumidity
p365
I59
sVpressure
p366
F1000.22
sVtemp_min
p367
F55.04
ssVwind
p368
(dp369
Vspeed
p370
F12.44
sVdeg
p371
F334.504
ssa(dp372
Vclouds
p373
(dp374
Vall
p375
I0
ssVrain
p376
(dp377
sVsys
p378
(dp379
Vpod
p380
Vd
p381
ssVdt_txt
p382
V2016-06-07 18:00:00
p383
sVweather
p384
(lp385
(dp386
Vmain
p387
VClear
p388
sVid
p389
I800
sVicon
p390
V01d
p391
sVdescription
p392
Vclear sky
p393
sasVdt
p394
I1465322400
sVmain
p395
(dp396
Vtemp_kf
p397
F-3.71
sVtemp
p398
F63.14
sVgrnd_level
p399
F999.73
sVtemp_max
p400
F69.81
sVsea_level
p401
F1023.83
sVhumidity
p402
I51
sVpressure
p403
F999.73
sVtemp_min
p404
F63.14
ssVwind
p405
(dp406
Vspeed
p407
F11.48
sVdeg
p408
F330.504
ssa(dp409
Vclouds
p410
(dp411
Vall
p412
I20
ssVrain
p413
(dp414
sVsys
p415
(dp416
Vpod
p417
Vd
p418
ssVdt_txt
p419
V2016-06-07 21:00:00
p420
sVweather
p421
(lp422
(dp423
Vmain
p424
VClouds
p425
sVid
p426
I801
sVicon
p427
V02d
p428
sVdescription
p429
Vfew clouds
p430
sasVdt
p431
I1465333200
sVmain
p432
(dp433
Vtemp_kf
p434
F-3.3
sVtemp
p435
F66.7
sVgrnd_level
p436
F998.85
sVtemp_max
p437
F72.64
sVsea_level
p438
F1022.99
sVhumidity
p439
I46
sVpressure
p440
F998.85
sVtemp_min
p441
F66.7
ssVwind
p442
(dp443
Vspeed
p444
I10
sVdeg
p445
F331.5
ssa(dp446
Vclouds
p447
(dp448
Vall
p449
I12
ssVrain
p450
(dp451
sVsys
p452
(dp453
Vpod
p454
Vn
p455
ssVdt_txt
p456
V2016-06-08 00:00:00
p457
sVweather
p458
(lp459
(dp460
Vmain
p461
VClouds
p462
sVid
p463
I801
sVicon
p464
V02n
p465
sVdescription
p466
Vfew clouds
p467
sasVdt
p468
I1465344000
sVmain
p469
(dp470
Vtemp_kf
p471
F-2.88
sVtemp
p472
F66.11
sVgrnd_level
p473
F998.85
sVtemp_max
p474
F71.3
sVsea_level
p475
I1023
sVhumidity
p476
I41
sVpressure
p477
F998.85
sVtemp_min
p478
F66.11
ssVwind
p479
(dp480
Vspeed
p481
F10.65
sVdeg
p482
F321.001
ssa(dp483
Vclouds
p484
(dp485
Vall
p486
I0
ssVrain
p487
(dp488
sVsys
p489
(dp490
Vpod
p491
Vn
p492
ssVdt_txt
p493
V2016-06-08 03:00:00
p494
sVweather
p495
(lp496
(dp497
Vmain
p498
VClear
p499
sVid
p500
I800
sVicon
p501
V01n
p502
sVdescription
p503
Vclear sky
p504
sasVdt
p505
I1465354800
sVmain
p506
(dp507
Vtemp_kf
p508
F-2.47
sVtemp
p509
F60.58
sVgrnd_level
p510
F1000.03
sVtemp_max
p511
F65.04
sVsea_level
p512
F1024.35
sVhumidity
p513
I49
sVpressure
p514
F1000.03
sVtemp_min
p515
F60.58
ssVwind
p516
(dp517
Vspeed
p518
F8.63
sVdeg
p519
F320.5
ssa(dp520
Vclouds
p521
(dp522
Vall
p523
I0
ssVrain
p524
(dp525
sVsys
p526
(dp527
Vpod
p528
Vn
p529
ssVdt_txt
p530
V2016-06-08 06:00:00
p531
sVweather
p532
(lp533
(dp534
Vmain
p535
VClear
p536
sVid
p537
I800
sVicon
p538
V01n
p539
sVdescription
p540
Vclear sky
p541
sasVdt
p542
I1465365600
sVmain
p543
(dp544
Vtemp_kf
p545
F-2.06
sVtemp
p546
F56.8
sVgrnd_level
p547
F1001.24
sVtemp_max
p548
F60.5
sVsea_level
p549
F1025.67
sVhumidity
p550
I56
sVpressure
p551
F1001.24
sVtemp_min
p552
F56.8
ssVwind
p553
(dp554
Vspeed
p555
F9.19
sVdeg
p556
I336
ssa(dp557
Vclouds
p558
(dp559
Vall
p560
I0
ssVrain
p561
(dp562
sVsys
p563
(dp564
Vpod
p565
Vn
p566
ssVdt_txt
p567
V2016-06-08 09:00:00
p568
sVweather
p569
(lp570
(dp571
Vmain
p572
VClear
p573
sVid
p574
I800
sVicon
p575
V01n
p576
sVdescription
p577
Vclear sky
p578
sasVdt
p579
I1465376400
sVmain
p580
(dp581
Vtemp_kf
p582
F-1.65
sVtemp
p583
F53.17
sVgrnd_level
p584
F1002.83
sVtemp_max
p585
F56.14
sVsea_level
p586
F1027.41
sVhumidity
p587
I68
sVpressure
p588
F1002.83
sVtemp_min
p589
F53.17
ssVwind
p590
(dp591
Vspeed
p592
F7.2
sVdeg
p593
F344.502
ssa(dp594
Vclouds
p595
(dp596
Vall
p597
I0
ssVrain
p598
(dp599
sVsys
p600
(dp601
Vpod
p602
Vd
p603
ssVdt_txt
p604
V2016-06-08 12:00:00
p605
sVweather
p606
(lp607
(dp608
Vmain
p609
VClear
p610
sVid
p611
I800
sVicon
p612
V01d
p613
sVdescription
p614
Vclear sky
p615
sasVdt
p616
I1465387200
sVmain
p617
(dp618
Vtemp_kf
p619
F-1.24
sVtemp
p620
F56.28
sVgrnd_level
p621
F1004.42
sVtemp_max
p622
F58.5
sVsea_level
p623
F1028.87
sVhumidity
p624
I69
sVpressure
p625
F1004.42
sVtemp_min
p626
F56.28
ssVwind
p627
(dp628
Vspeed
p629
F3.27
sVdeg
p630
F313.503
ssa(dp631
Vclouds
p632
(dp633
Vall
p634
I0
ssVrain
p635
(dp636
sVsys
p637
(dp638
Vpod
p639
Vd
p640
ssVdt_txt
p641
V2016-06-08 15:00:00
p642
sVweather
p643
(lp644
(dp645
Vmain
p646
VClear
p647
sVid
p648
I800
sVicon
p649
V01d
p650
sVdescription
p651
Vclear sky
p652
sasVdt
p653
I1465398000
sVmain
p654
(dp655
Vtemp_kf
p656
F-0.82
sVtemp
p657
F66.92
sVgrnd_level
p658
F1005.15
sVtemp_max
p659
F68.41
sVsea_level
p660
F1029.38
sVhumidity
p661
I55
sVpressure
p662
F1005.15
sVtemp_min
p663
F66.92
ssVwind
p664
(dp665
Vspeed
p666
F4.38
sVdeg
p667
F331.003
ssa(dp668
Vclouds
p669
(dp670
Vall
p671
I0
ssVrain
p672
(dp673
sVsys
p674
(dp675
Vpod
p676
Vd
p677
ssVdt_txt
p678
V2016-06-08 18:00:00
p679
sVweather
p680
(lp681
(dp682
Vmain
p683
VClear
p684
sVid
p685
I800
sVicon
p686
V01d
p687
sVdescription
p688
Vclear sky
p689
sasVdt
p690
I1465408800
sVmain
p691
(dp692
Vtemp_kf
p693
F-0.41
sVtemp
p694
F73.06
sVgrnd_level
p695
F1004.78
sVtemp_max
p696
F73.79
sVsea_level
p697
F1028.92
sVhumidity
p698
I49
sVpressure
p699
F1004.78
sVtemp_min
p700
F73.06
ssVwind
p701
(dp702
Vspeed
p703
F6.62
sVdeg
p704
F314.003
ssa(dp705
Vclouds
p706
(dp707
Vall
p708
I0
ssVrain
p709
(dp710
sVsys
p711
(dp712
Vpod
p713
Vd
p714
ssVdt_txt
p715
V2016-06-08 21:00:00
p716
sVweather
p717
(lp718
(dp719
Vmain
p720
VClear
p721
sVid
p722
I800
sVicon
p723
V01d
p724
sVdescription
p725
Vclear sky
p726
sasVdt
p727
I1465419600
sVmain
p728
(dp729
Vtemp_kf
p730
I0
sVtemp
p731
F77.37
sVgrnd_level
p732
F1003.38
sVtemp_max
p733
F77.37
sVsea_level
p734
F1027.66
sVhumidity
p735
I39
sVpressure
p736
F1003.38
sVtemp_min
p737
F77.37
ssVwind
p738
(dp739
Vspeed
p740
F8.93
sVdeg
p741
F310.502
ssa(dp742
Vclouds
p743
(dp744
Vall
p745
I0
ssVrain
p746
(dp747
sVsys
p748
(dp749
Vpod
p750
Vn
p751
ssVdt_txt
p752
V2016-06-09 00:00:00
p753
sVweather
p754
(lp755
(dp756
Vmain
p757
VClear
p758
sVid
p759
I800
sVicon
p760
V01n
p761
sVdescription
p762
Vclear sky
p763
sasVdt
p764
I1465430400
sVmain
p765
(dp766
Vtemp_kf
p767
I0
sVtemp
p768
F75.63
sVgrnd_level
p769
F1003.06
sVtemp_max
p770
F75.63
sVsea_level
p771
F1027.26
sVhumidity
p772
I35
sVpressure
p773
F1003.06
sVtemp_min
p774
F75.63
ssVwind
p775
(dp776
Vspeed
p777
F8.43
sVdeg
p778
F320.001
ssa(dp779
Vclouds
p780
(dp781
Vall
p782
I0
ssVrain
p783
(dp784
sVsys
p785
(dp786
Vpod
p787
Vn
p788
ssVdt_txt
p789
V2016-06-09 03:00:00
p790
sVweather
p791
(lp792
(dp793
Vmain
p794
VClear
p795
sVid
p796
I800
sVicon
p797
V01n
p798
sVdescription
p799
Vclear sky
p800
sasVdt
p801
I1465441200
sVmain
p802
(dp803
Vtemp_kf
p804
I0
sVtemp
p805
F64.83
sVgrnd_level
p806
F1003.88
sVtemp_max
p807
F64.83
sVsea_level
p808
F1028.13
sVhumidity
p809
I50
sVpressure
p810
F1003.88
sVtemp_min
p811
F64.83
ssVwind
p812
(dp813
Vspeed
p814
F5.19
sVdeg
p815
F32.5047
ssa(dp816
Vclouds
p817
(dp818
Vall
p819
I0
ssVrain
p820
(dp821
sVsys
p822
(dp823
Vpod
p824
Vn
p825
ssVdt_txt
p826
V2016-06-09 06:00:00
p827
sVweather
p828
(lp829
(dp830
Vmain
p831
VClear
p832
sVid
p833
I800
sVicon
p834
V01n
p835
sVdescription
p836
Vclear sky
p837
sasVdt
p838
I1465452000
sVmain
p839
(dp840
Vtemp_kf
p841
I0
sVtemp
p842
F59.25
sVgrnd_level
p843
F1004.6
sVtemp_max
p844
F59.25
sVsea_level
p845
F1028.99
sVhumidity
p846
I62
sVpressure
p847
F1004.6
sVtemp_min
p848
F59.25
ssVwind
p849
(dp850
Vspeed
p851
F7.63
sVdeg
p852
F68.5012
ssa(dp853
Vclouds
p854
(dp855
Vall
p856
I0
ssVrain
p857
(dp858
sVsys
p859
(dp860
Vpod
p861
Vn
p862
ssVdt_txt
p863
V2016-06-09 09:00:00
p864
sVweather
p865
(lp866
(dp867
Vmain
p868
VClear
p869
sVid
p870
I800
sVicon
p871
V01n
p872
sVdescription
p873
Vclear sky
p874
sasVdt
p875
I1465462800
sVmain
p876
(dp877
Vtemp_kf
p878
I0
sVtemp
p879
F54.71
sVgrnd_level
p880
F1004.91
sVtemp_max
p881
F54.71
sVsea_level
p882
F1029.4
sVhumidity
p883
I71
sVpressure
p884
F1004.91
sVtemp_min
p885
F54.71
ssVwind
p886
(dp887
Vspeed
p888
F3.38
sVdeg
p889
F77.5009
ssa(dp890
Vclouds
p891
(dp892
Vall
p893
I8
ssVrain
p894
(dp895
sVsys
p896
(dp897
Vpod
p898
Vd
p899
ssVdt_txt
p900
V2016-06-09 12:00:00
p901
sVweather
p902
(lp903
(dp904
Vmain
p905
VClear
p906
sVid
p907
I800
sVicon
p908
V02d
p909
sVdescription
p910
Vclear sky
p911
sasVdt
p912
I1465473600
sVmain
p913
(dp914
Vtemp_kf
p915
I0
sVtemp
p916
F61.14
sVgrnd_level
p917
F1005.49
sVtemp_max
p918
F61.14
sVsea_level
p919
F1029.95
sVhumidity
p920
I55
sVpressure
p921
F1005.49
sVtemp_min
p922
F61.14
ssVwind
p923
(dp924
Vspeed
p925
F3.6
sVdeg
p926
F90.0026
ssa(dp927
Vclouds
p928
(dp929
Vall
p930
I68
ssVrain
p931
(dp932
V3h
p933
F0.59
ssVsys
p934
(dp935
Vpod
p936
Vd
p937
ssVdt_txt
p938
V2016-06-09 15:00:00
p939
sVweather
p940
(lp941
(dp942
Vmain
p943
VRain
p944
sVid
p945
I500
sVicon
p946
V10d
p947
sVdescription
p948
Vlight rain
p949
sasVdt
p950
I1465484400
sVmain
p951
(dp952
Vtemp_kf
p953
I0
sVtemp
p954
F62.67
sVgrnd_level
p955
F1007.64
sVtemp_max
p956
F62.67
sVsea_level
p957
F1031.73
sVhumidity
p958
I67
sVpressure
p959
F1007.64
sVtemp_min
p960
F62.67
ssVwind
p961
(dp962
Vspeed
p963
F4.74
sVdeg
p964
F228.506
ssa(dp965
Vclouds
p966
(dp967
Vall
p968
I32
ssVrain
p969
(dp970
V3h
p971
F0.15
ssVsys
p972
(dp973
Vpod
p974
Vd
p975
ssVdt_txt
p976
V2016-06-09 18:00:00
p977
sVweather
p978
(lp979
(dp980
Vmain
p981
VRain
p982
sVid
p983
I500
sVicon
p984
V10d
p985
sVdescription
p986
Vlight rain
p987
sasVdt
p988
I1465495200
sVmain
p989
(dp990
Vtemp_kf
p991
I0
sVtemp
p992
F70.93
sVgrnd_level
p993
F1006.83
sVtemp_max
p994
F70.93
sVsea_level
p995
I1031
sVhumidity
p996
I62
sVpressure
p997
F1006.83
sVtemp_min
p998
F70.93
ssVwind
p999
(dp1000
Vspeed
p1001
F1.81
sVdeg
p1002
F224.501
ssa(dp1003
Vclouds
p1004
(dp1005
Vall
p1006
I0
ssVrain
p1007
(dp1008
sVsys
p1009
(dp1010
Vpod
p1011
Vd
p1012
ssVdt_txt
p1013
V2016-06-09 21:00:00
p1014
sVweather
p1015
(lp1016
(dp1017
Vmain
p1018
VClear
p1019
sVid
p1020
I800
sVicon
p1021
V01d
p1022
sVdescription
p1023
Vclear sky
p1024
sasVdt
p1025
I1465506000
sVmain
p1026
(dp1027
Vtemp_kf
p1028
I0
sVtemp
p1029
F75.92
sVgrnd_level
p1030
F1005.88
sVtemp_max
p1031
F75.92
sVsea_level
p1032
I1030
sVhumidity
p1033
I50
sVpressure
p1034
F1005.88
sVtemp_min
p1035
F75.92
ssVwind
p1036
(dp1037
Vspeed
p1038
F2.62
sVdeg
p1039
F47.0037
ssa(dp1040
Vclouds
p1041
(dp1042
Vall
p1043
I0
ssVrain
p1044
(dp1045
sVsys
p1046
(dp1047
Vpod
p1048
Vn
p1049
ssVdt_txt
p1050
V2016-06-10 00:00:00
p1051
sVweather
p1052
(lp1053
(dp1054
Vmain
p1055
VClear
p1056
sVid
p1057
I800
sVicon
p1058
V01n
p1059
sVdescription
p1060
Vclear sky
p1061
sasVdt
p1062
I1465516800
sVmain
p1063
(dp1064
Vtemp_kf
p1065
I0
sVtemp
p1066
F71.76
sVgrnd_level
p1067
F1005.88
sVtemp_max
p1068
F71.76
sVsea_level
p1069
F1029.9
sVhumidity
p1070
I41
sVpressure
p1071
F1005.88
sVtemp_min
p1072
F71.76
ssVwind
p1073
(dp1074
Vspeed
p1075
F9.86
sVdeg
p1076
F37.0078
ssa(dp1077
Vclouds
p1078
(dp1079
Vall
p1080
I0
ssVrain
p1081
(dp1082
sVsys
p1083
(dp1084
Vpod
p1085
Vn
p1086
ssVdt_txt
p1087
V2016-06-10 03:00:00
p1088
sVweather
p1089
(lp1090
(dp1091
Vmain
p1092
VClear
p1093
sVid
p1094
I800
sVicon
p1095
V01n
p1096
sVdescription
p1097
Vclear sky
p1098
sasVdt
p1099
I1465527600
sVmain
p1100
(dp1101
Vtemp_kf
p1102
I0
sVtemp
p1103
F60.58
sVgrnd_level
p1104
F1007.19
sVtemp_max
p1105
F60.58
sVsea_level
p1106
F1031.41
sVhumidity
p1107
I52
sVpressure
p1108
F1007.19
sVtemp_min
p1109
F60.58
ssVwind
p1110
(dp1111
Vspeed
p1112
F10.22
sVdeg
p1113
F40.0009
ssa(dp1114
Vclouds
p1115
(dp1116
Vall
p1117
I0
ssVrain
p1118
(dp1119
sVsys
p1120
(dp1121
Vpod
p1122
Vn
p1123
ssVdt_txt
p1124
V2016-06-10 06:00:00
p1125
sVweather
p1126
(lp1127
(dp1128
Vmain
p1129
VClear
p1130
sVid
p1131
I800
sVicon
p1132
V01n
p1133
sVdescription
p1134
Vclear sky
p1135
sasVdt
p1136
I1465538400
sVmain
p1137
(dp1138
Vtemp_kf
p1139
I0
sVtemp
p1140
F56.26
sVgrnd_level
p1141
F1006.7
sVtemp_max
p1142
F56.26
sVsea_level
p1143
F1031.13
sVhumidity
p1144
I68
sVpressure
p1145
F1006.7
sVtemp_min
p1146
F56.26
ssVwind
p1147
(dp1148
Vspeed
p1149
F8.12
sVdeg
p1150
F53.0022
ssa(dp1151
Vclouds
p1152
(dp1153
Vall
p1154
I0
ssVrain
p1155
(dp1156
sVsys
p1157
(dp1158
Vpod
p1159
Vn
p1160
ssVdt_txt
p1161
V2016-06-10 09:00:00
p1162
sVweather
p1163
(lp1164
(dp1165
Vmain
p1166
VClear
p1167
sVid
p1168
I800
sVicon
p1169
V01n
p1170
sVdescription
p1171
Vclear sky
p1172
sasVdt
p1173
I1465549200
sVmain
p1174
(dp1175
Vtemp_kf
p1176
I0
sVtemp
p1177
F55.07
sVgrnd_level
p1178
F1006.41
sVtemp_max
p1179
F55.07
sVsea_level
p1180
F1030.88
sVhumidity
p1181
I76
sVpressure
p1182
F1006.41
sVtemp_min
p1183
F55.07
ssVwind
p1184
(dp1185
Vspeed
p1186
F7.76
sVdeg
p1187
F68.5001
ssa(dp1188
Vclouds
p1189
(dp1190
Vall
p1191
I44
ssVrain
p1192
(dp1193
sVsys
p1194
(dp1195
Vpod
p1196
Vd
p1197
ssVdt_txt
p1198
V2016-06-10 12:00:00
p1199
sVweather
p1200
(lp1201
(dp1202
Vmain
p1203
VClouds
p1204
sVid
p1205
I802
sVicon
p1206
V03d
p1207
sVdescription
p1208
Vscattered clouds
p1209
sasVdt
p1210
I1465560000
sVmain
p1211
(dp1212
Vtemp_kf
p1213
I0
sVtemp
p1214
F59.81
sVgrnd_level
p1215
F1007.03
sVtemp_max
p1216
F59.81
sVsea_level
p1217
F1031.38
sVhumidity
p1218
I50
sVpressure
p1219
F1007.03
sVtemp_min
p1220
F59.81
ssVwind
p1221
(dp1222
Vspeed
p1223
F8.66
sVdeg
p1224
F109.501
ssa(dp1225
Vclouds
p1226
(dp1227
Vall
p1228
I8
ssVrain
p1229
(dp1230
sVsys
p1231
(dp1232
Vpod
p1233
Vd
p1234
ssVdt_txt
p1235
V2016-06-10 15:00:00
p1236
sVweather
p1237
(lp1238
(dp1239
Vmain
p1240
VClear
p1241
sVid
p1242
I800
sVicon
p1243
V02d
p1244
sVdescription
p1245
Vclear sky
p1246
sasVdt
p1247
I1465570800
sVmain
p1248
(dp1249
Vtemp_kf
p1250
I0
sVtemp
p1251
F72.5
sVgrnd_level
p1252
F1005.55
sVtemp_max
p1253
F72.5
sVsea_level
p1254
F1029.76
sVhumidity
p1255
I46
sVpressure
p1256
F1005.55
sVtemp_min
p1257
F72.5
ssVwind
p1258
(dp1259
Vspeed
p1260
F9.19
sVdeg
p1261
F145.504
ssa(dp1262
Vclouds
p1263
(dp1264
Vall
p1265
I0
ssVrain
p1266
(dp1267
V3h
p1268
F0.005
ssVsys
p1269
(dp1270
Vpod
p1271
Vd
p1272
ssVdt_txt
p1273
V2016-06-10 18:00:00
p1274
sVweather
p1275
(lp1276
(dp1277
Vmain
p1278
VRain
p1279
sVid
p1280
I500
sVicon
p1281
V10d
p1282
sVdescription
p1283
Vlight rain
p1284
sasVdt
p1285
I1465581600
sVmain
p1286
(dp1287
Vtemp_kf
p1288
I0
sVtemp
p1289
F82.26
sVgrnd_level
p1290
F1004.04
sVtemp_max
p1291
F82.26
sVsea_level
p1292
F1027.98
sVhumidity
p1293
I51
sVpressure
p1294
F1004.04
sVtemp_min
p1295
F82.26
ssVwind
p1296
(dp1297
Vspeed
p1298
F8.43
sVdeg
p1299
F181.002
ssa(dp1300
Vclouds
p1301
(dp1302
Vall
p1303
I24
ssVrain
p1304
(dp1305
sVsys
p1306
(dp1307
Vpod
p1308
Vd
p1309
ssVdt_txt
p1310
V2016-06-10 21:00:00
p1311
sVweather
p1312
(lp1313
(dp1314
Vmain
p1315
VClouds
p1316
sVid
p1317
I801
sVicon
p1318
V02d
p1319
sVdescription
p1320
Vfew clouds
p1321
sasVdt
p1322
I1465592400
sVmain
p1323
(dp1324
Vtemp_kf
p1325
I0
sVtemp
p1326
F86.78
sVgrnd_level
p1327
F1001.92
sVtemp_max
p1328
F86.78
sVsea_level
p1329
F1025.8
sVhumidity
p1330
I49
sVpressure
p1331
F1001.92
sVtemp_min
p1332
F86.78
ssVwind
p1333
(dp1334
Vspeed
p1335
F6.06
sVdeg
p1336
F211.5
ssa(dp1337
Vclouds
p1338
(dp1339
Vall
p1340
I0
ssVrain
p1341
(dp1342
sVsys
p1343
(dp1344
Vpod
p1345
Vn
p1346
ssVdt_txt
p1347
V2016-06-11 00:00:00
p1348
sVweather
p1349
(lp1350
(dp1351
Vmain
p1352
VClear
p1353
sVid
p1354
I800
sVicon
p1355
V01n
p1356
sVdescription
p1357
Vclear sky
p1358
sasVdt
p1359
I1465603200
sVmain
p1360
(dp1361
Vtemp_kf
p1362
I0
sVtemp
p1363
F87.64
sVgrnd_level
p1364
F1000.46
sVtemp_max
p1365
F87.64
sVsea_level
p1366
F1024.19
sVhumidity
p1367
I47
sVpressure
p1368
F1000.46
sVtemp_min
p1369
F87.64
ssVwind
p1370
(dp1371
Vspeed
p1372
F8.41
sVdeg
p1373
F226.004
ssa(dp1374
Vclouds
p1375
(dp1376
Vall
p1377
I0
ssVrain
p1378
(dp1379
sVsys
p1380
(dp1381
Vpod
p1382
Vn
p1383
ssVdt_txt
p1384
V2016-06-11 03:00:00
p1385
sVweather
p1386
(lp1387
(dp1388
Vmain
p1389
VClear
p1390
sVid
p1391
I800
sVicon
p1392
V01n
p1393
sVdescription
p1394
Vclear sky
p1395
sasVdt
p1396
I1465614000
sVmain
p1397
(dp1398
Vtemp_kf
p1399
I0
sVtemp
p1400
F79.02
sVgrnd_level
p1401
F1000.89
sVtemp_max
p1402
F79.02
sVsea_level
p1403
F1024.79
sVhumidity
p1404
I64
sVpressure
p1405
F1000.89
sVtemp_min
p1406
F79.02
ssVwind
p1407
(dp1408
Vspeed
p1409
F5.39
sVdeg
p1410
F225.012
ssa(dp1411
Vclouds
p1412
(dp1413
Vall
p1414
I0
ssVrain
p1415
(dp1416
sVsys
p1417
(dp1418
Vpod
p1419
Vn
p1420
ssVdt_txt
p1421
V2016-06-11 06:00:00
p1422
sVweather
p1423
(lp1424
(dp1425
Vmain
p1426
VClear
p1427
sVid
p1428
I800
sVicon
p1429
V01n
p1430
sVdescription
p1431
Vclear sky
p1432
sasVdt
p1433
I1465624800
sVmain
p1434
(dp1435
Vtemp_kf
p1436
I0
sVtemp
p1437
F72.25
sVgrnd_level
p1438
F1000.13
sVtemp_max
p1439
F72.25
sVsea_level
p1440
F1024.09
sVhumidity
p1441
I80
sVpressure
p1442
F1000.13
sVtemp_min
p1443
F72.25
ssVwind
p1444
(dp1445
Vspeed
p1446
F3.04
sVdeg
p1447
F210.006
ssa(dp1448
Vclouds
p1449
(dp1450
Vall
p1451
I0
ssVrain
p1452
(dp1453
sVsys
p1454
(dp1455
Vpod
p1456
Vn
p1457
ssVdt_txt
p1458
V2016-06-11 09:00:00
p1459
sVweather
p1460
(lp1461
(dp1462
Vmain
p1463
VClear
p1464
sVid
p1465
I800
sVicon
p1466
V01n
p1467
sVdescription
p1468
Vclear sky
p1469
sasVdt
p1470
I1465635600
sVmain
p1471
(dp1472
Vtemp_kf
p1473
I0
sVtemp
p1474
F69.41
sVgrnd_level
p1475
F999.67
sVtemp_max
p1476
F69.41
sVsea_level
p1477
F1023.73
sVhumidity
p1478
I85
sVpressure
p1479
F999.67
sVtemp_min
p1480
F69.41
ssVwind
p1481
(dp1482
Vspeed
p1483
F2.24
sVdeg
p1484
F113.504
ssasVcod
p1485
V200
p1486
sVcnt
p1487
I40
s.