(dp0
Vclouds
p1
(dp2
Vall
p3
I90
ssVname
p4
VOak Park
p5
sVrain
p6
(dp7
V1h
p8
F0.71
ssVsys
p9
(dp10
Vcountry
p11
VUS
p12
sVsunset
p13
I1464398229
sVmessage
p14
F0.0055
sVtype
p15
I1
sVid
p16
I961
sVsunrise
p17
I1464344415
ssVweather
p18
(lp19
(dp20
Vmain
p21
VRain
p22
sVid
p23
I500
sVicon
p24
V10d
p25
sVdescription
p26
Vlight rain
p27
sasVcoord
p28
(dp29
Vlat
p30
F41.89
sVlon
p31
F-87.78
ssVbase
p32
Vcmc stations
p33
sVdt
p34
I1464392830
sVmain
p35
(dp36
Vpressure
p37
I1010
sVtemp_min
p38
I68
sVtemp_max
p39
I81
sVtemp
p40
F74.68
sVhumidity
p41
I73
ssVid
p42
I4904381
sVwind
p43
(dp44
Vspeed
p45
F11.41
sVdeg
p46
I160
ssVcod
p47
I200
s.